; Function Attrs: mustprogress nofree norecurse nosync nounwind willreturn memory(argmem: readwrite) uwtable
define void @_ZN32pxrInternal_v0_24__pxrReserved__9GfRange2fC2ERKNS_9GfRange2dE(ptr noundef nonnull writeonly align 4 captures(none) dereferenceable(16) initializes((0, 16)) %0, ptr noundef nonnull readonly align 8 captures(none) dereferenceable(32) %1) unnamed_addr #3 align 2 {
  %3 = load double, ptr %1, align 8
  %4 = fptrunc double %3 to float
  store float %4, ptr %0, align 4
  %5 = getelementptr inbounds nuw i8, ptr %1, i64 8
  %6 = load double, ptr %5, align 8
  %7 = fptrunc double %6 to float
  %8 = getelementptr inbounds nuw i8, ptr %0, i64 4
  store float %7, ptr %8, align 4
  %9 = getelementptr inbounds nuw i8, ptr %0, i64 8
  %10 = getelementptr inbounds nuw i8, ptr %1, i64 16
  %11 = load double, ptr %10, align 8
  %12 = fptrunc double %11 to float
  store float %12, ptr %9, align 4
  %13 = getelementptr inbounds nuw i8, ptr %1, i64 24
  %14 = load double, ptr %13, align 8
  %15 = fptrunc double %14 to float
  %16 = getelementptr inbounds nuw i8, ptr %0, i64 12
  store float %15, ptr %16, align 4
  ret void
}